2
10110: 0000                   .OPT OO,P1
11000: 0000          FLAG     =$0298
11005: 0000          ACIA     =$D600
11010: 0000          SERI2    =$029B
11010: 0000          SERI1    =$029C
11020: 0000          SERO2    =$029E
11020: 0000          SERO1    =$029D
11030: 0000          SERST    =$0297
11040: 0000          MAP      =$0299
            ;********************************
            ;--------------------------------
            ;AENDERUNGEN AM ROM
            ;--------------------------------
            ;FARBE FUER CLR/HOME HINTERGRUND
20050: E4DA          *=       $E4DA 
20050: E4DA AD 86 02           LDA $0286
20060: EB1C          *=       $EB1C 
20060: EB1C A0 03              LDY #3      ; CURSOR SPEED
20070: FF7D          *=       $FF7D 
20070: FF7D 60                 RTS         ; CLKHI BEI RESET
            ;********************************
            ;--------------------------------
            ;        RS 232 PER ACIA
            ;--------------------------------
            ; BELEGT     $F014-$F0AC
            ;            $F409-$F49D
            ;--------------------------------
            ;-------OPEN
21040: F409          *=       $F409
21040: F409           RSOPEN  
21050: F409 A0 00             LDY #0
21050: F40B 8C 97 02          STY SERST
21050: F40E C4 B7    RS0      CPY $B7
21060: F410 F0 0A             BEQ RS1
21060: F412 B1 BB             LDA ($BB),Y
21060: F414 99 93 02          STA $0293,Y
21070: F417 C8                INY
21070: F418 C0 04             CPY #$04
21070: F41A D0 F2             BNE RS0
21080: F41C AD 93 02 RS1      LDA $0293
21080: F41F 09 10             ORA #16
21080: F421 78                SEI
21090: F422 8D 01 D6          STA ACIA+1
21090: F425 8D 03 D6          STA ACIA+3
21100: F428 AD 94 02          LDA $0294
21100: F42B 29 F0             AND #$F0
21100: F42D 09 07             ORA #$07
21110: F42F 8D 02 D6          STA ACIA+2
21120: F432 AD 01 D6          LDA ACIA+1
21130: F435 A9 00             LDA #0
21130: F437 8D A1 02          STA $02A1
21130: F43A 58                CLI
21140: F43B 20 27 FE          JSR $FE27
21140: F43E A5 F8             LDA $F8
21140: F440 D0 05             BNE RS2
21140: F442 88                DEY
21150: F443 84 F8             STY $F8
21150: F445 86 F7             STX $F7
21160: F447 A5 FA    RS2      LDA $FA
21160: F449 D0 05             BNE RS3
21160: F44B 88                DEY
21170: F44C 84 FA             STY $FA
21170: F44E 86 F9             STX $F9
21180: F450 38       RS3      SEC
21180: F451 A9 F0             LDA #$F0
21180: F453 4C 2D FE          JMP $FE2D
            ;-------- RESET
21200: F456 78       RSRESET  SEI
21200: F457 A9 02             LDA #2
21200: F459 8D 01 D6          STA ACIA+1
21210: F45C 8D 02 D6          STA ACIA+2
21210: F45F 58                CLI
21210: F460 60                RTS
            ;-------- BASIN
21230: F461 AD 97 02 RSBASIN  LDA SERST
21230: F464 AC 9C 02          LDY SERI1
21240: F467 CC 9B 02          CPY SERI2
21240: F46A F0 2A             BEQ RSBIE
21240: F46C 29 F7             AND #$F7
21250: F46E 8D 97 02          STA SERST
21250: F471 B1 F7             LDA ($F7),Y
21260: F473 EE 9C 02          INC SERI1
21260: F476 48                PHA
21270: F477 AD 94 02          LDA $0294
21270: F47A 29 01             AND #1
21270: F47C F0 15             BEQ RSBI1
21280: F47E AD 9C 02          LDA SERI1
21280: F481 38                SEC
21280: F482 ED 9B 02          SBC SERI2
21290: F485 C9 C0             CMP #$C0
21290: F487 90 0A             BCC RSBI1
21300: F489 AD 02 D6          LDA ACIA+2
21300: F48C 29 F3             AND #$F3
21300: F48E 09 04             ORA #$04
21310: F490 8D 02 D6          STA ACIA+2
21310: F493 68       RSBI1    PLA
21310: F494 18                CLC
21310: F495 60                RTS
21320: F496 09 08    RSBIE    ORA #$08
21320: F498 8D 97 02          STA SERST
21320: F49B A9 00             LDA #0
21330: F49D 60                RTS
            ;-------- CLOSE
21350: F2AF          *=       $F2AF
21350: F2AF 20 56 F4          JSR RSRESET
21360: F2C5          *=       $F2C5
21360: F2C5 4C 50 F4          JMP RS3
            ;-------- CHKIN
21380: F227          *=       $F227
21380: F227 4C AB F0          JMP RSCHKIN
            ;-------- CHKOUT
21400: F26C          *=       $F26C
21400: F26C 4C AF F0          JMP RSCKOUT
            ;-------- BSOUT
21420: F014          *=       $F014
21420: F014 EA                NOP
21420: F015 EA                NOP
21420: F016 EA                NOP
21430: F017 AC 9E 02 RSBSOUT  LDY SERO2
21430: F01A C8                INY
21430: F01B CC 9D 02          CPY SERO1
21440: F01E F0 F7             BEQ RSBSOUT
21440: F020 8C 9E 02          STY SERO2
21440: F023 88                DEY
21450: F024 A5 9E             LDA $9E
21450: F026 91 F9             STA ($F9),Y
21450: F028 18       CRTS     CLC
21450: F029 60                RTS
            ;-------- IRQ
21470: F02A AA       RSIR1    TAX
21480: F02B AD 97 02          LDA SERST
21480: F02E 29 0C             AND #$0C
21480: F030 8D 97 02          STA SERST
21490: F033 8A                TXA
21490: F034 29 63             AND #$63
21490: F036 0D 97 02          ORA SERST
21490: F039 8D 97 02          STA SERST
            ;----
21510: F03C 8A                TXA
21510: F03D 29 08             AND #%00001000
21510: F03F F0 33             BEQ SI3
21520: F041 AD 00 D6          LDA ACIA
21520: F044 AC 9B 02          LDY SERI2
21520: F047 91 F7             STA ($F7),Y
21530: F049 C8                INY
21530: F04A AD 97 02          LDA SERST
21540: F04D CC 9C 02          CPY SERI1
21540: F050 D0 05             BNE SI2
21550: F052 09 04             ORA #4
21550: F054 8D 97 02          STA SERST
21560: F057 8C 9B 02 SI2      STY SERI2
            ;----
21580: F05A AD 94 02          LDA $0294
21580: F05D 29 01             AND #1
21580: F05F F0 13             BEQ SI3
21590: F061 AD 9C 02          LDA SERI1
21590: F064 38                SEC
21590: F065 ED 9B 02          SBC SERI2    ;=FREI
21600: F068 C9 40             CMP #$40
21600: F06A B0 08             BCS SI3      ; MEHR ALS 1/4
21610: F06C AD 02 D6          LDA ACIA+2
21610: F06F 29 F3             AND #$F3
21610: F071 8D 02 D6          STA ACIA+2
            ;----
21630: F074 8A       SI3      TXA
21630: F075 29 10             AND #%00010000
21630: F077 F0 17             BEQ SI6
21640: F079 AC 9D 02          LDY SERO1
21640: F07C CC 9E 02          CPY SERO2
21640: F07F F0 0F             BEQ SI6
21650: F081 B1 F9             LDA ($F9),Y
21650: F083 4C 89 F0          JMP SII
            ;----
21660: F086 4C 61 F4           JMP RSBASIN ;(*=F086)
21670: F089 8D 00 D6 SII      STA ACIA
21670: F08C C8                INY
21680: F08D 8C 9D 02          STY SERO1
            ;----
21700: F090 AD 01 D6 SI6      LDA ACIA+1
21700: F093 60                RTS
            ;----
21720: F094 AD 01 D6 RSIRQ    LDA ACIA+1
21720: F097 10 06             BPL RSIR2
21730: F099 20 2A F0          JSR RSIR1
21730: F09C 4C 81 EA          JMP $EA81
21740: F09F 4C A5 F0 RSIR2    JMP RSIR3
21740: F0A2 EA                NOP
21740: F0A3 EA                NOP
21740: F0A4 60                RTS          ; F0A4
21749: F0A5 20 EA FF RSIR3    JSR $FFEA
21749: F0A8 4C 34 EA          JMP $EA34
            ;-------- CHKIN/CKOUT
21760: F0AB 85 99    RSCHKIN  STA $99
21760: F0AD 18                CLC
21760: F0AE 60                RTS
21770: F0AF 85 9A    RSCKOUT  STA $9A
21770: F0B1 18                CLC
21770: F0B2 60                RTS
            ;--------------------------------
            ;-------- NMIOUT ADRS
21790: ED0E          *=       $ED0E
21790: ED0E EA                NOP
21790: ED0F EA                NOP
21790: ED10 EA                NOP
21800: F88A          *=       $F88A
21800: F88A EA                NOP
21800: F88B EA                NOP
21800: F88C EA                NOP
            ;-------- NMI-EINSPRUNG LOESCHEN
21820: FE54          *=       $FE54
21820: FE54 EA                NOP
21820: FE55 EA                NOP
21830: FE72          *=       $FE72
21830: FE72 4C B6 FE          JMP $FEB6
            ;-------- IRQ SETZEN
21850: EA31          *=       $EA31
21850: EA31 4C 94 F0          JMP RSIRQ
            ;********************************
            ;-------------------------------
22010: E1E6          *=       $E1E6
22010: E1E6 20 C0 EE          JSR LSP      ; LOAD/SAVE IM DIR
22020: E1D9          *=       $E1D9
22020: E1D9 A2 08             LDX #8
22020: E1DB A0 01             LDY #1
22020: E1DD 20 BB EE          JSR LSD      ;
22030: E5E7          *=       $E5E7
22030: E5E7 20 D4 EE          JSR KEY      ; F-TASTEN
22040: ECE7          *=       $ECE7        ; SHIFT RUN/STOP
22050: ECE7 4C CF 22          .BYT "L","Ï",34,"*"
22060: E455          *=       $E455
22060: E455 BD 2C EF          LDA TTAB,X   ;BASIC-VEKTOREN
            ;--------------------------------
22100: EEBB          *=       $EEBB
22101: EEBB 84 B9    LSD      STY $B9
22101: EEBD 4C F7 EF          JMP TSTBA
22105: EEC0 20 79 00 LSP      JSR $0079
22105: EEC3 C9 2C             CMP #","
22105: EEC5 F0 0C             BEQ LSP1
22107: EEC7 A0 01             LDY #1
22107: EEC9 84 B9             STY $B9
22107: EECB 20 F7 EF          JSR TSTBA
22110: EECE 68                PLA
22110: EECF 68                PLA
22110: EED0 4C F8 A8          JMP $A8F8
22110: EED3 60       LSP1     RTS
22200: EED4 20 B4 E5 KEY      JSR $E5B4
22200: EED7 2C 98 02          BIT FLAG
22200: EEDA 30 F7             BMI LSP1
22210: EEDC C9 8D             CMP #141
22210: EEDE B0 F3             BCS LSP1
22220: EEE0 C9 85             CMP #133
22220: EEE2 90 EF             BCC LSP1
22230: EEE4 E9 85             SBC #133
22230: EEE6 A8                TAY
22230: EEE7 BE FF EE          LDX KEY1,Y
22230: EEEA A0 01             LDY #1
22240: EEEC BD 07 EF K1       LDA KT,X
22240: EEEF F0 07             BEQ K2
22250: EEF1 99 76 02 KTX      STA $0276,Y
22250: EEF4 C8                INY
22250: EEF5 E8                INX
22250: EEF6 D0 F4             BNE K1
22260: EEF8 84 C6    K2       STY $C6
22260: EEFA 68                PLA
22260: EEFB 68                PLA
22260: EEFC 4C CD E5          JMP $E5CD
22270: EEFF 00 07 0D KEY1     .BYT 0,KT3-KT,KT5-KT,KT7-KT
22275: EF03 19 1B 1E          .BYT KT2-KT,KT4-KT,KT6-KT,KT8-KT
22280: EF07 93 4C 49 KT       .ASC "“LIST"
22280: EF0C 0D 00             .BYT 13,0
22281: EF0E 52 55 4E KT3      .ASC "RUN:"
22281: EF12 0D 00             .BYT 13,0
22282: EF14 4C 4F 41 KT5      .ASC "LOAD"
22282: EF18 0D 00             .BYT 13,0
22283: EF1A 93 3E 24 KT7      .ASC "“>$0"
22283: EF1E 0D 00             .BYT 13,0
22284: EF20 89       KT2      .ASC "‰"
22284: EF21 00                .BYT 0
22285: EF22 5F       KT4      .ASC "_"
22285: EF23 0D 00             .BYT 13,0
22286: EF25 53 41 56 KT6      .ASC "SAVE"
22286: EF29 00                .BYT 0
22287: EF2A 8C       KT8      .ASC "Œ"
22287: EF2B 00                .BYT 0
22290: EF2C 8B E3 83 TTAB     .WORD $E38B,$A483,NEUBEF
22295: EF32 1A A7 E4          .WORD $A71A,$A7E4,GETAUS
22300: EF38 A9 00    GETAUS   LDA #0
22300: EF3A 85 0D             STA $0D
22310: EF3C 20 73 00          JSR $0073
22310: EF3F C9 24             CMP #"$"
22310: EF41 F0 23             BEQ GTA1
22320: EF43 C9 25             CMP #"%"
22320: EF45 F0 06             BEQ GTA2
22320: EF47 20 79 00          JSR $0079
22330: EF4A 4C 8D AE          JMP $AE8D
22340: EF4D A9 00    GTA2     LDA #0
22340: EF4F 85 63             STA $63
22340: EF51 85 62             STA $62
22350: EF53 20 73 00 GTA2A    JSR $0073
22350: EF56 B0 3C             BCS GTAE
22360: EF58 C9 32             CMP #"2"
22360: EF5A B0 07             BCS GTAERR
22370: EF5C 4A                LSR
22370: EF5D 26 63             ROL $63
22370: EF5F 26 62             ROL $62
22370: EF61 90 F0             BCC GTA2A
22380: EF63 4C 48 B2 GTAERR   JMP $B248    ; ILL. QUANTITY
22390: EF66 A9 00    GTA1     LDA #0
22390: EF68 85 62             STA $62
22390: EF6A 85 63    GTA1A    STA $63
22400: EF6C 20 73 00          JSR $0073
22400: EF6F 38                SEC
22400: EF70 E9 30             SBC #"0"
22410: EF72 90 20             BCC GTAE
22410: EF74 C9 0A             CMP #10
22410: EF76 90 0A             BCC GTA1O
22420: EF78 E9 07             SBC #"A"-"9"-1
22420: EF7A C9 0A             CMP #10
22420: EF7C 90 16             BCC GTAE
22430: EF7E C9 10             CMP #16
22430: EF80 B0 E1             BCS GTAERR
22440: EF82 48       GTA1O    PHA
22440: EF83 A0 04             LDY #4
22440: EF85          GTA3     
22450: EF85 06 63             ASL $63
22450: EF87 26 62             ROL $62
22450: EF89 B0 D8             BCS GTAERR
22460: EF8B 88                DEY
22460: EF8C D0 F7             BNE GTA3
22460: EF8E 68                PLA
22460: EF8F 05 63             ORA $63
22470: EF91 4C 6A EF          JMP GTA1A
22480: EF94 A2 90    GTAE     LDX #$90
22480: EF96 38                SEC
22480: EF97 20 49 BC          JSR $BC49
22490: EF9A 4C 79 00          JMP $0079
22500: EF9D AD 00 02 NEUBEF   LDA $0200
22510: EFA0 C9 40             CMP #"@"
22510: EFA2 F0 2A             BEQ NBA1
22510: EFA4 C9 3E             CMP #">"
22520: EFA6 F0 26             BEQ NBA1
22520: EFA8 C9 21             CMP #"!"
22520: EFAA F0 07             BEQ NBA2
22530: EFAC C9 5F             CMP #"_"
22530: EFAE F0 32             BEQ SYSOFF
22530: EFB0 4C 7C A5          JMP $A57C
22540: EFB3 A9 01    NBA2     LDA #1
22540: EFB5 A8                TAY
22540: EFB6 91 2B             STA ($2B),Y
22550: EFB8 20 33 A5          JSR $A533
22550: EFBB A5 22             LDA $22
22550: EFBD 18                CLC
22550: EFBE 69 02             ADC #2
22560: EFC0 85 2D             STA $2D
22560: EFC2 A5 23             LDA $23
22560: EFC4 69 00             ADC #0
22560: EFC6 85 2E             STA $2E
22570: EFC8 20 63 A6          JSR $A663
22570: EFCB 4C 86 E3          JMP $E386
22580: EFCE 20 73 00 NBA1     JSR $0073
22580: EFD1 90 03             BCC NBZ1
22580: EFD3 4C 75 FE          JMP NB1F
22581: EFD6 20 9E B7 NBZ1     JSR $B79E
22581: EFD9 8A                TXA
22581: EFDA 29 0F             AND #15
22582: EFDC 8D 98 02          STA FLAG
22582: EFDF 4C D6 FE NBA1EX   JMP NBA1E
22600: EFE2 A2 0B    SYSOFF   LDX #$0B
22610: EFE4 BD 47 E4 SO1      LDA $E447,X
22610: EFE7 9D 00 03          STA $0300,X
22620: EFEA CA                DEX
22620: EFEB 10 F7             BPL SO1
22620: EFED AD 98 02          LDA FLAG
22630: EFF0 09 80             ORA #128
22630: EFF2 8D 98 02          STA FLAG
22630: EFF5 D0 E8             BNE NBA1EX
22700: EFF7          TSTBA    
22705: EFF7 AD 98 02          LDA FLAG
22705: EFFA 29 0F             AND #15
22705: EFFC 85 BA             STA $BA
22705: EFFE 60       TST1     RTS
22710: EFFF A9 08    NRESET   LDA #8
22710: F001 8D 98 02          STA FLAG
22715: F004 A9 80             LDA #128
22715: F006 8D 8A 02          STA 650
22720: F009 A9 02             LDA #2
22720: F00B 8D 02 D6          STA ACIA+2
22725: F00E 4C 6E FF          JMP $FF6E
            ;--------------------------------
22995: FDF6          *=       $FDF6
22995: FDF6 4C FF EF          JMP NRESET
            ;--------------------------------
23000: FE75          *=       $FE75
23000: FE75 20 F7 EF NB1F     JSR TSTBA
23005: FE78 A9 00             LDA #0
23005: FE7A 85 90             STA $90
23005: FE7C A5 BA             LDA $BA
23005: FE7E 20 B1 FF          JSR $FFB1
23010: FE81 AD 01 02          LDA $0201
23010: FE84 C9 24             CMP #"$"
23010: FE86 D0 03             BNE NB1C
23015: FE88 A9 F0             LDA #$F0
23015: FE8A 2C                .BYT $2C
23020: FE8B A9 FF    NB1C     LDA #$FF
23020: FE8D 20 93 FF          JSR $FF93
23025: FE90 A5 90             LDA $90
23025: FE92 30 42             BMI NBA1E
23030: FE94 A0 00             LDY #0
23030: FE96 B9 01 02 NBA1A    LDA $0201,Y
23030: FE99 F0 06             BEQ NB1E
23035: FE9B 20 A8 FF          JSR $FFA8
23035: FE9E C8                INY
23035: FE9F D0 F5             BNE NBA1A
23040: FEA1 20 AE FF NB1E     JSR $FFAE
23040: FEA4 A5 90             LDA $90
23040: FEA6 D0 2E             BNE NBA1E
23045: FEA8 A5 BA             LDA $BA
23045: FEAA 20 B4 FF          JSR $FFB4
23050: FEAD AD 01 02          LDA $0201
23055: FEB0 C9 24             CMP #"$"
23055: FEB2 4C C2 FE          JMP NB1G
            ;--------------------------------
23058: FEC2          *=       $FEC2
23060: FEC2 F0 17    NB1G     BEQ NB1D
23060: FEC4 A9 FF             LDA #$FF
23063: FEC6 20 96 FF          JSR $FF96
23065: FEC9 20 A5 FF NB1B     JSR $FFA5
23065: FECC 20 16 E7          JSR $E716
23065: FECF A5 90             LDA $90
23070: FED1 F0 F6             BEQ NB1B
23070: FED3 20 AB FF NBDE     JSR $FFAB
23075: FED6 68       NBA1E    PLA
23075: FED7 68                PLA
23075: FED8 4C 86 E3          JMP $E386
23085: FEDB A9 F0    NB1D     LDA #$F0
23085: FEDD 20 96 FF          JSR $FF96
23090: FEE0 20 A5 FF          JSR $FFA5
23090: FEE3 20 A5 FF          JSR $FFA5
23095: FEE6 20 A5 FF NBDL     JSR $FFA5
23095: FEE9 20 A5 FF          JSR $FFA5
23100: FEEC A6 90             LDX $90
23100: FEEE D0 26             BNE EDL3
23105: FEF0 20 A5 FF          JSR $FFA5
23105: FEF3 AA                TAX
23105: FEF4 20 A5 FF          JSR $FFA5
23105: FEF7 20 CD BD          JSR $BDCD
23110: FEFA 20 A5 FF EDL1     JSR $FFA5
23110: FEFD A6 90             LDX $90
23110: FEFF D0 07             BNE EDL2
23115: FF01 20 16 E7          JSR $E716
23115: FF04 C9 00             CMP #0
23120: FF06 D0 F2             BNE EDL1
23125: FF08 A9 0D    EDL2     LDA #13
23125: FF0A 20 16 E7          JSR $E716
23130: FF0D 20 E4 FF          JSR $FFE4
23130: FF10 D0 04             BNE EDL3
23135: FF12 A5 90             LDA $90
23135: FF14 F0 D0             BEQ NBDL
23135: FF16 20 AB FF EDL3     JSR $FFAB
23140: FF19 A5 BA             LDA $BA
23140: FF1B 20 B1 FF          JSR $FFB1
23140: FF1E A9 E0             LDA #$E0
23145: FF20 20 93 FF          JSR $FF93
23145: FF23 20 AE FF          JSR $FFAE
23145: FF26 4C D6 FE          JMP NBA1E
            ;******** KASSETTE LOESCHEN *****
24000: F5F8          *=       $F5F8
24000: F5F8 90 F7              BCC $F5F1   ; SAVE
24010: F4B6          *=       $F4B6
24010: F4B6 90 F7              BCC $F4AF   ; LOAD
24020: F38B          *=       $F38B
24020: F38B 4C 13 F7           JMP $F713   ; OPEN
24030: F2C8          *=       $F2C8
24030: F2C8 4C 13 F7           JMP $F713   ; CLOSE
24040: F26F          *=       $F26F
24040: F26F 4C 13 F7           JMP $F713   ; CKOUT
24050: F225          *=       $F225
24050: F225 D0 48              BNE $F26F   ; CHKIN
24060: F1E5          *=       $F1E5
24060: F1E5 38                 SEC
24060: F1E6 B0 15             BCS $F1FD    ; BSOUT
24070: F179          *=       $F179
24070: F179 38                 SEC
24070: F17A 60                RTS          ; BASIN
            ;******* PARALLELER IEC-BUS *****
25000: F17B          Z1       =$94
25000: F17B          Z2       =$95
25000: F17B          Z3       =$0285
25010: F17B          B1       =$FE1C
25010: F17B          B2       =$DC07
25010: F17B          B3       =$DC0D
25020: F17B          B4       =$DC0F
25020: F17B          B5       =$DF00
25020: F17B          B6       =$DF01
25030: F17B          B7       =$DF03
25030: F17B          B8       =$DF04
25040: F17B          C1       =$DF00
25040: F17B          C2       =$DF02
25040: F17B          C3       =$DF03
25050: F17B          C4       =$DF04
25055: F72C          *=       $F72C
25060: F72C AD 02 DF IECINI   LDA C2
25060: F72F 29 EF             AND # 239
25060: F731 8D 02 DF          STA C2
25070: F734 A0 00             LDY # 0
25070: F736 8C 04 DF          STY C4
25070: F739 A9 3A             LDA # 58
25080: F73B 8D 00 DF          STA C1
25080: F73E A9 3F             LDA # 63
25080: F740 8D 03 DF          STA C3
25090: F743 AD 02 DF          LDA C2
25090: F746 29 FE             AND # 254
25090: F748 8D 02 DF          STA C2
25100: F74B A0 FF             LDY # 255
25100: F74D 88       L0       DEY 
25100: F74E EA                NOP
25110: F74F D0 FC             BNE L0
25110: F751 AD 02 DF          LDA C2
25110: F754 09 01             ORA # 1
25120: F756 8D 02 DF          STA C2
25120: F759 A9 39             LDA # 57
25120: F75B 8D 00 DF          STA C1
25130: F75E 60                RTS
            ;*****
25150: F75F 09 40    IECTALK  ORA # 64
25150: F761 2C                .BYT $2C
25160: F762 09 20    IECLISTEN ORA # 32
25170: F764 48       IECTL L1 PHA 
25170: F765 A9 3B             LDA # 59
25170: F767 8D 03 DF          STA B7
25180: F76A A9 FF             LDA # 255
25180: F76C 8D 01 DF          STA B6
25180: F76F 8D 04 DF          STA B8
25190: F772 A9 FA             LDA # 250
25190: F774 8D 00 DF          STA B5
25190: F777 A5 94             LDA Z1
25200: F779 10 1B             BPL L2
25200: F77B AD 00 DF          LDA B5
25200: F77E 29 DF             AND # 223
25210: F780 8D 00 DF          STA B5
25210: F783 A5 95             LDA Z2
25210: F785 20 F0 F7          JSR L7
25220: F788 A5 94             LDA Z1
25220: F78A 29 7F             AND # 127
25220: F78C 85 94             STA Z1
25230: F78E AD 00 DF          LDA B5
25230: F791 09 20             ORA # 32
25230: F793 8D 00 DF          STA B5
25240: F796 AD 00 DF L2       LDA B5
25240: F799 29 F7             AND # 247
25240: F79B 8D 00 DF          STA B5
25250: F79E 68                PLA 
25250: F79F 4C F0 F7          JMP L7
25250: F7A2 20 F0 F7 SECLISTEN JSR L7
25260: F7A5 AD 00 DF L3       LDA B5
25260: F7A8 09 08             ORA # 8
25260: F7AA 8D 00 DF          STA B5
25270: F7AD 60                RTS
25280: F7AE 20 F0 F7 SECTALK  JSR L7
25280: F7B1 A9 3D    L4       LDA # 61
25290: F7B3 2D 00 DF          AND B5
25290: F7B6 8D 00 DF          STA B5
25290: F7B9 A9 C3             LDA # 195
25300: F7BB 8D 03 DF          STA B7
25300: F7BE A9 00             LDA # 0
25300: F7C0 8D 04 DF          STA B8
25310: F7C3 F0 E0             BEQ L3
25310: F7C5 48       IECOUT   PHA 
25310: F7C6 A5 94             LDA Z1
25320: F7C8 10 07             BPL L5
25320: F7CA A5 95             LDA Z2
25320: F7CC 20 F0 F7          JSR L7
25330: F7CF A5 94             LDA Z1
25330: F7D1 09 80    L5       ORA # 128
25330: F7D3 85 94             STA Z1
25340: F7D5 68                PLA 
25340: F7D6 85 95             STA Z2
25340: F7D8 18                CLC 
25350: F7D9 60                RTS 
25350: F7DA A9 5F    UNTALK   LDA # 95
25350: F7DC D0 02             BNE L6
25360: F7DE A9 3F    UNLISTEN LDA # 63
25360: F7E0 20 64 F7 L6       JSR L1
25360: F7E3 20 B1 F7          JSR L4
25370: F7E6 A9 FD             LDA # 253
25370: F7E8 0D 00 DF          ORA B5
25370: F7EB 8D 00 DF          STA B5
25370: F7EE 58                CLI
25380: F7EF 60                RTS 
25380: F7F0 49 FF    L7       EOR # 255
25380: F7F2 8D 01 DF          STA B6
25390: F7F5 AD 00 DF          LDA B5
25390: F7F8 09 12             ORA # 18
25390: F7FA 8D 00 DF          STA B5
25400: F7FD 2C 00 DF          BIT B5
25400: F800 50 09             BVC L8
25400: F802 10 07             BPL L8
25410: F804 A9 80             LDA # 128
25410: F806 20 1C FE          JSR B1
25410: F809 D0 2B             BNE L12
25420: F80B AD 00 DF L8       LDA B5
25420: F80E 10 FB             BPL L8
25420: F810 29 EF             AND # 239
25430: F812 8D 00 DF          STA B5
25430: F815 20 9E F8 L9       JSR L18
25430: F818 2C 00 DF L10      BIT B5
25440: F81B 70 11             BVS L11
25440: F81D AD 0D DC          LDA B3
25440: F820 29 02             AND # 2
25450: F822 F0 F4             BEQ L10
25450: F824 AD 85 02          LDA Z3
25450: F827 30 EC             BMI L9
25460: F829 A9 01             LDA # 1
25460: F82B 20 1C FE          JSR B1
25460: F82E AD 00 DF L11      LDA B5
25470: F831 09 10             ORA # 16
25470: F833 8D 00 DF          STA B5
25470: F836 A9 FF    L12      LDA # 255
25480: F838 8D 01 DF          STA B6
25480: F83B 60                RTS 
25480: F83C AD 00 DF IECIN    LDA B5
25490: F83F 29 BD             AND # 189
25490: F841 09 81             ORA # 129
25490: F843 8D 00 DF          STA B5
25500: F846 20 9E F8 L13      JSR L18
25500: F849 AD 00 DF L14      LDA B5
25500: F84C 29 10             AND # 16
25510: F84E F0 1D             BEQ L15
25510: F850 AD 0D DC          LDA B3
25510: F853 29 02             AND # 2
25520: F855 F0 F2             BEQ L14
25520: F857 AD 85 02          LDA Z3
25520: F85A 30 EA             BMI L13
25530: F85C A9 02             LDA # 2
25530: F85E 20 1C FE          JSR B1
25530: F861 AD 00 DF          LDA B5
25540: F864 29 3D             AND # 61
25540: F866 8D 00 DF          STA B5
25540: F869 A9 0D             LDA # 13
25550: F86B 18                CLC 
25550: F86C 60                RTS 
25550: F86D AD 00 DF L15      LDA B5
25560: F870 29 7F             AND # 127
25560: F872 8D 00 DF          STA B5
25560: F875 29 20             AND # 32
25570: F877 D0 05             BNE L16
25570: F879 A9 40             LDA # 64
25570: F87B 20 1C FE          JSR B1
25580: F87E AD 01 DF L16      LDA B6
25580: F881 49 FF             EOR # 255
25580: F883 48                PHA 
25590: F884 AD 00 DF          LDA B5
25590: F887 09 40             ORA # 64
25590: F889 8D 00 DF          STA B5
25600: F88C AD 00 DF L17      LDA B5
25600: F88F 29 10             AND # 16
25600: F891 F0 F9             BEQ L17
25610: F893 AD 00 DF          LDA B5
25610: F896 29 BF             AND # 191
25610: F898 8D 00 DF          STA B5
25620: F89B 68                PLA 
25620: F89C 18                CLC 
25620: F89D 60                RTS 
25630: F89E A9 FF    L18      LDA # 255
25630: F8A0 8D 07 DC          STA B2
25630: F8A3 A9 11             LDA # 17
25640: F8A5 8D 0F DC          STA B4
25640: F8A8 AD 0D DC          LDA B3
25640: F8AB 60                RTS
            ;**** EINBINDUNG
25705: F8AC 8D 00 DC NINI     STA $DC00
25708: F8AF 20 2C F7          JSR IECINI
25708: F8B2 4C AE FD          JMP $FDAE
25710: F8B5 20 1E F9 NTALK    JSR SETDEV
25720: F8B8 2C 99 02          BIT MAP
25720: F8BB 10 03             BPL OTL
25720: F8BD 4C 64 F7          JMP IECTL
25730: F8C0 20 A4 F0 OTL      JSR $F0A4
25730: F8C3 4C 11 ED          JMP $ED11
25740: F8C6 2C 99 02 NSECL    BIT MAP
25740: F8C9 10 03             BPL OSL
25740: F8CB 4C A2 F7          JMP SECLISTEN
25750: F8CE 20 36 ED OSL      JSR $ED36
25750: F8D1 4C BE ED          JMP $EDBE
25760: F8D4 2C 99 02 NSECT    BIT MAP
25760: F8D7 10 03             BPL OST
25760: F8D9 4C AE F7          JMP SECTALK
25770: F8DC 20 36 ED OST      JSR $ED36
25770: F8DF 4C CC ED          JMP $EDCC
25780: F8E2 2C 99 02 NOUT     BIT MAP
25780: F8E5 10 03             BPL OOUT
25780: F8E7 4C C5 F7          JMP IECOUT
25790: F8EA 24 94    OOUT     BIT $94
25790: F8EC 30 03             BMI OOUT1
25790: F8EE 4C E1 ED          JMP $EDE1
25800: F8F1 4C E6 ED OOUT1    JMP $EDE6
25810: F8F4 2C 99 02 NUT      BIT MAP
25810: F8F7 10 03             BPL OUT
25810: F8F9 4C DA F7          JMP UNTALK
25820: F8FC 20 8E EE OUT      JSR $EE8E
25820: F8FF 4C F3 ED          JMP $EDF3
25830: F902 2C 99 02 NUL      BIT MAP
25830: F905 10 03             BPL OUL
25830: F907 4C DE F7          JMP UNLISTEN
25840: F90A 20 11 ED OUL      JSR $ED11
25840: F90D 4C 03 EE          JMP $EE03
25850: F910 2C 99 02 NIN      BIT MAP
25850: F913 10 03             BPL OIN
25850: F915 4C 3C F8          JMP IECIN
25860: F918 78       OIN      SEI
25860: F919 A9 00             LDA #0
25860: F91B 4C 16 EE          JMP $EE16
25870: F91E 48       SETDEV   PHA
25870: F91F 84 94             STY Z1
25871: F921 29 0F             AND #15
25871: F923 38                SEC
25871: F924 E9 04             SBC #4
25871: F926 90 19             BCC PIEC
25872: F928 C9 07             CMP #7
25872: F92A B0 15             BCS PIEC
25872: F92C A8                TAY
25873: F92D B9 4B F9          LDA POT2,Y
25873: F930 A4 94             LDY Z1
25873: F932 2D 99 02          AND MAP
25873: F935 F0 0A             BEQ PIEC
25880: F937 AD 99 02          LDA MAP
25880: F93A 29 7F             AND #127
25880: F93C 8D 99 02          STA MAP
25880: F93F 68                PLA
25880: F940 60                RTS
25881: F941          PIEC     
25885: F941 AD 99 02          LDA MAP
25885: F944 09 80             ORA #128
25885: F946 8D 99 02          STA MAP
25885: F949 68                PLA
25885: F94A 60                RTS
25886: F94B 01 02 04 POT2     .BYT 1,2,4,8,$10,$20,$40
25887: F952 A9 00    NMINI    LDA #0
25887: F954 A8                TAY
25887: F955 20 53 FD          JSR $FD53
25888: F958 A9 A1             LDA #%10100001
25888: F95A 8D 99 02          STA MAP
25888: F95D 60                RTS
25890: FDAB          *=       $FDAB
25890: FDAB 20 AC F8           JSR NINI
25895: FD50          *=       $FD50
25895: FD50 4C 52 F9           JMP NMINI
25900: ED0E          *=       $ED0E
25900: ED0E 4C B5 F8           JMP NTALK   ; UND LISTEN
25910: EDBB          *=       $EDBB
25910: EDBB 4C C6 F8           JMP NSECL
25920: EDC9          *=       $EDC9
25920: EDC9 4C D4 F8           JMP NSECT
25930: EDDD          *=       $EDDD
25930: EDDD 4C E2 F8           JMP NOUT
25930: EDE0 EA                NOP
25940: EDF0          *=       $EDF0
25940: EDF0 4C F4 F8           JMP NUT
25950: EE00          *=       $EE00
25950: EE00 4C 02 F9           JMP NUL
25960: EE13          *=       $EE13
25960: EE13 4C 10 F9           JMP NIN
            ;******** LEERE BEREICHE LOESCHEN
            ;*******************************
50000: EE16                   .END
]E4DA-EE16
